target datalayout = "e-m:e-p270:32:32-p271:32:32-p272:64:64-i64:64-i128:128-f80:128-n8:16:32:64-S128"
target triple = "x86_64-pc-linux-gnu"

%class.svector = type { %class.vector }
%class.vector = type { ptr }
%class.app = type { %class.expr, ptr, i32, %struct.app_flags, [0 x ptr] }
%class.expr = type { %class.ast }
%class.ast = type { i32, i32, i32, i32 }
%struct.app_flags = type <{ i16, i8, i8 }>
%class.symbol = type { ptr }
%class.ref_vector_core = type { %class.ref_manager_wrapper, %class.ptr_vector.27 }
%class.ref_manager_wrapper = type { ptr }
%class.ptr_vector.27 = type { %class.vector.28 }
%class.vector.28 = type { ptr }
%class.ref_vector = type { %class.ref_vector_core }
%class.demodulator_match_subst = type <{ %class.substitution, %class.obj_pair_hashtable, %class.svector.44, i8, [7 x i8] }>
%class.substitution = type <{ ptr, %class.var_offset_map, %class.svector.33, %class.ref_vector, %class.svector, %class.svector.35, %class.expr_offset_map, %class.ref_vector, %class.expr_offset_map.38, i32, [4 x i8] }>
%class.var_offset_map = type <{ %class.svector.31, i32, i32, i32, [4 x i8] }>
%class.svector.31 = type { %class.vector.32 }
%class.vector.32 = type { ptr }
%class.svector.33 = type { %class.vector.34 }
%class.vector.34 = type { ptr }
%class.svector.35 = type { %class.vector.36 }
%class.vector.36 = type { ptr }
%class.expr_offset_map = type <{ %class.vector.37, i32, [4 x i8] }>
%class.vector.37 = type { ptr }
%class.expr_offset_map.38 = type <{ %class.vector.39, i32, [4 x i8] }>
%class.vector.39 = type { ptr }
%class.obj_pair_hashtable = type { %class.core_hashtable.base.43, [4 x i8] }
%class.core_hashtable.base.43 = type <{ ptr, i32, i32, i32 }>
%class.svector.44 = type { %class.vector.45 }
%class.vector.45 = type { ptr }
%class.decl = type { %class.ast, %class.symbol, ptr }
%class.anon = type { ptr }
%"struct.std::pair.75" = type { ptr, ptr }
%class.vector.77 = type { ptr }
%struct.func_decl_info = type <{ %class.decl_info.base, i16, [5 x i8] }>
%class.decl_info.base = type <{ i32, i32, %class.vector.77, i8 }>

; Function Attrs: mustprogress nounwind uwtable
define linkonce_odr hidden noundef i32 @_ZNK3ast8get_kindEv(ptr noundef nonnull align 4 dereferenceable(16) %0) #7 comdat align 2 {
  %2 = alloca ptr, align 8
  store ptr %0, ptr %2, align 8, !tbaa !25
  %3 = load ptr, ptr %2, align 8
  %4 = getelementptr inbounds nuw %class.ast, ptr %3, i32 0, i32 1
  %5 = load i32, ptr %4, align 4
  %6 = and i32 %5, 65535
  ret i32 %6
}

; Function Attrs: mustprogress nounwind uwtable
define linkonce_odr hidden noundef zeroext i1 @_ZNK14func_decl_info14is_commutativeEv(ptr noundef nonnull align 8 dereferenceable(19) %0) #7 comdat align 2 {
  %2 = alloca ptr, align 8
  store ptr %0, ptr %2, align 8, !tbaa !547
  %3 = load ptr, ptr %2, align 8
  %4 = getelementptr inbounds nuw %struct.func_decl_info, ptr %3, i32 0, i32 1
  %5 = load i16, ptr %4, align 1
  %6 = lshr i16 %5, 3
  %7 = and i16 %6, 1
  %8 = trunc i16 %7 to i1
  ret i1 %8
}

; Function Attrs: mustprogress nounwind uwtable
define linkonce_odr hidden noundef ptr @_ZNK9func_decl8get_infoEv(ptr noundef nonnull align 8 dereferenceable(48) %0) #7 comdat align 2 {
  %2 = alloca ptr, align 8
  store ptr %0, ptr %2, align 8, !tbaa !182
  %3 = load ptr, ptr %2, align 8
  %4 = getelementptr inbounds nuw %class.decl, ptr %3, i32 0, i32 2
  %5 = load ptr, ptr %4, align 8, !tbaa !335
  ret ptr %5
}

; Function Attrs: mustprogress uwtable
define linkonce_odr hidden noundef nonnull align 8 dereferenceable(8) ptr @_ZN6vectorISt4pairIP4exprS2_ELb0EjE9push_backEOS3_(ptr noundef nonnull align 8 dereferenceable(8) %0, ptr noundef nonnull align 8 dereferenceable(16) %1) #4 comdat align 2 {
  %3 = alloca ptr, align 8
  %4 = alloca ptr, align 8
  store ptr %0, ptr %3, align 8, !tbaa !399
  store ptr %1, ptr %4, align 8, !tbaa !388
  %5 = load ptr, ptr %3, align 8
  %6 = getelementptr inbounds nuw %class.vector.45, ptr %5, i32 0, i32 0
  %7 = load ptr, ptr %6, align 8, !tbaa !401
  %8 = icmp eq ptr %7, null
  br i1 %8, label %19, label %9

9:                                                ; preds = %2
  %10 = getelementptr inbounds nuw %class.vector.45, ptr %5, i32 0, i32 0
  %11 = load ptr, ptr %10, align 8, !tbaa !401
  %12 = getelementptr inbounds i32, ptr %11, i64 -1
  %13 = load i32, ptr %12, align 4, !tbaa !17
  %14 = getelementptr inbounds nuw %class.vector.45, ptr %5, i32 0, i32 0
  %15 = load ptr, ptr %14, align 8, !tbaa !401
  %16 = getelementptr inbounds i32, ptr %15, i64 -2
  %17 = load i32, ptr %16, align 4, !tbaa !17
  %18 = icmp eq i32 %13, %17
  br i1 %18, label %19, label %20

19:                                               ; preds = %9, %2
  call void @_ZN6vectorISt4pairIP4exprS2_ELb0EjE13expand_vectorEv(ptr noundef nonnull align 8 dereferenceable(8) %5)
  br label %20

20:                                               ; preds = %19, %9
  %21 = getelementptr inbounds nuw %class.vector.45, ptr %5, i32 0, i32 0
  %22 = load ptr, ptr %21, align 8, !tbaa !401
  %23 = getelementptr inbounds nuw %class.vector.45, ptr %5, i32 0, i32 0
  %24 = load ptr, ptr %23, align 8, !tbaa !401
  %25 = getelementptr inbounds i32, ptr %24, i64 -1
  %26 = load i32, ptr %25, align 4, !tbaa !17
  %27 = zext i32 %26 to i64
  %28 = getelementptr inbounds nuw %"struct.std::pair.75", ptr %22, i64 %27
  %29 = load ptr, ptr %4, align 8, !tbaa !388
  call void @llvm.memcpy.p0.p0.i64(ptr align 8 %28, ptr align 8 %29, i64 16, i1 false)
  %30 = getelementptr inbounds nuw %class.vector.45, ptr %5, i32 0, i32 0
  %31 = load ptr, ptr %30, align 8, !tbaa !401
  %32 = getelementptr inbounds i32, ptr %31, i64 -1
  %33 = load i32, ptr %32, align 4, !tbaa !17
  %34 = add i32 %33, 1
  store i32 %34, ptr %32, align 4, !tbaa !17
  ret ptr %5
}

; Function Attrs: mustprogress nounwind uwtable
define linkonce_odr hidden void @_ZNSt4pairIP4exprS1_EC2IRS1_S4_Qcl16_S_constructibleITL0__TL0_0_EEEEOT_OT0_(ptr noundef nonnull align 8 dereferenceable(16) %0, ptr noundef nonnull align 8 dereferenceable(8) %1, ptr noundef nonnull align 8 dereferenceable(8) %2) unnamed_addr #7 comdat align 2 {
  %4 = alloca ptr, align 8
  %5 = alloca ptr, align 8
  %6 = alloca ptr, align 8
  store ptr %0, ptr %4, align 8, !tbaa !388
  store ptr %1, ptr %5, align 8, !tbaa !51
  store ptr %2, ptr %6, align 8, !tbaa !51
  %7 = load ptr, ptr %4, align 8
  %8 = getelementptr inbounds nuw %"struct.std::pair.75", ptr %7, i32 0, i32 0
  %9 = load ptr, ptr %5, align 8, !tbaa !51
  %10 = load ptr, ptr %9, align 8, !tbaa !8
  store ptr %10, ptr %8, align 8, !tbaa !402
  %11 = getelementptr inbounds nuw %"struct.std::pair.75", ptr %7, i32 0, i32 1
  %12 = load ptr, ptr %6, align 8, !tbaa !51
  %13 = load ptr, ptr %12, align 8, !tbaa !8
  store ptr %13, ptr %11, align 8, !tbaa !404
  ret void
}

; Function Attrs: inlinehint mustprogress nounwind uwtable
define linkonce_odr hidden noundef ptr @_Z6to_appP3ast(ptr noundef %0) #6 comdat {
  %2 = alloca ptr, align 8
  store ptr %0, ptr %2, align 8, !tbaa !25
  %3 = load ptr, ptr %2, align 8, !tbaa !25
  ret ptr %3
}

; Function Attrs: inlinehint mustprogress uwtable
define linkonce_odr hidden noundef zeroext i1 @_Z6is_appPK3ast(ptr noundef %0) #8 comdat {
  %2 = alloca ptr, align 8
  store ptr %0, ptr %2, align 8, !tbaa !25
  %3 = load ptr, ptr %2, align 8, !tbaa !25
  %4 = call noundef i32 @_ZNK3ast8get_kindEv(ptr noundef nonnull align 4 dereferenceable(16) %3)
  %5 = icmp eq i32 %4, 0
  ret i1 %5
}

; Function Attrs: mustprogress nounwind uwtable
define linkonce_odr hidden noundef ptr @_ZNK3app7get_argEj(ptr noundef nonnull align 8 dereferenceable(32) %0, i32 noundef %1) #7 comdat align 2 {
  %3 = alloca ptr, align 8
  %4 = alloca i32, align 4
  store ptr %0, ptr %3, align 8, !tbaa !27
  store i32 %1, ptr %4, align 4, !tbaa !17
  %5 = load ptr, ptr %3, align 8
  %6 = getelementptr inbounds nuw %class.app, ptr %5, i32 0, i32 4
  %7 = load i32, ptr %4, align 4, !tbaa !17
  %8 = zext i32 %7 to i64
  %9 = getelementptr inbounds nuw [0 x ptr], ptr %6, i64 0, i64 %8
  %10 = load ptr, ptr %9, align 8, !tbaa !8
  ret ptr %10
}

; Function Attrs: mustprogress nounwind uwtable
define linkonce_odr hidden noundef i32 @_ZNK3app12get_num_argsEv(ptr noundef nonnull align 8 dereferenceable(32) %0) #7 comdat align 2 {
  %2 = alloca ptr, align 8
  store ptr %0, ptr %2, align 8, !tbaa !27
  %3 = load ptr, ptr %2, align 8
  %4 = getelementptr inbounds nuw %class.app, ptr %3, i32 0, i32 2
  %5 = load i32, ptr %4, align 8, !tbaa !29
  ret i32 %5
}

; Function Attrs: mustprogress uwtable
define linkonce_odr hidden noundef zeroext i1 @_ZNK9func_decl14is_commutativeEv(ptr noundef nonnull align 8 dereferenceable(48) %0) #4 comdat align 2 {
  %2 = alloca ptr, align 8
  store ptr %0, ptr %2, align 8, !tbaa !182
  %3 = load ptr, ptr %2, align 8
  %4 = call noundef ptr @_ZNK9func_decl8get_infoEv(ptr noundef nonnull align 8 dereferenceable(48) %3)
  %5 = icmp ne ptr %4, null
  br i1 %5, label %6, label %9

6:                                                ; preds = %1
  %7 = call noundef ptr @_ZNK9func_decl8get_infoEv(ptr noundef nonnull align 8 dereferenceable(48) %3)
  %8 = call noundef zeroext i1 @_ZNK14func_decl_info14is_commutativeEv(ptr noundef nonnull align 8 dereferenceable(19) %7)
  br label %9

9:                                                ; preds = %6, %1
  %10 = phi i1 [ false, %1 ], [ %8, %6 ]
  ret i1 %10
}

; Function Attrs: mustprogress nounwind uwtable
define linkonce_odr hidden noundef ptr @_ZNK3app8get_declEv(ptr noundef nonnull align 8 dereferenceable(32) %0) #7 comdat align 2 {
  %2 = alloca ptr, align 8
  store ptr %0, ptr %2, align 8, !tbaa !27
  %3 = load ptr, ptr %2, align 8
  %4 = getelementptr inbounds nuw %class.app, ptr %3, i32 0, i32 1
  %5 = load ptr, ptr %4, align 8, !tbaa !35
  ret ptr %5
}

; Function Attrs: inlinehint mustprogress uwtable
define internal noundef zeroext i1 @"_ZZN23demodulator_match_subst10match_argsEP3appPKP4exprENK3$_0clES1_S5_"(ptr noundef nonnull align 8 dereferenceable(8) %0, ptr noundef %1, ptr noundef %2) #8 align 2 {
  %4 = alloca i1, align 1
  %5 = alloca ptr, align 8
  %6 = alloca ptr, align 8
  %7 = alloca ptr, align 8
  %8 = alloca ptr, align 8
  %9 = alloca ptr, align 8
  %10 = alloca ptr, align 8
  %11 = alloca ptr, align 8
  %12 = alloca %"struct.std::pair.75", align 8
  %13 = alloca %"struct.std::pair.75", align 8
  %14 = alloca i32, align 4
  %15 = alloca %"struct.std::pair.75", align 8
  %16 = alloca %"struct.std::pair.75", align 8
  store ptr %0, ptr %5, align 8, !tbaa !326
  store ptr %1, ptr %6, align 8, !tbaa !27
  store ptr %2, ptr %7, align 8, !tbaa !51
  %17 = load ptr, ptr %5, align 8
  %18 = getelementptr inbounds nuw %class.anon, ptr %17, i32 0, i32 0
  %19 = load ptr, ptr %18, align 8, !tbaa !385
  %20 = load ptr, ptr %6, align 8, !tbaa !27
  %21 = call noundef ptr @_ZNK3app8get_declEv(ptr noundef nonnull align 8 dereferenceable(32) %20)
  %22 = call noundef zeroext i1 @_ZNK9func_decl14is_commutativeEv(ptr noundef nonnull align 8 dereferenceable(48) %21)
  br i1 %22, label %24, label %23

23:                                               ; preds = %3
  store i1 false, ptr %4, align 1
  br label %81

24:                                               ; preds = %3
  %25 = load ptr, ptr %6, align 8, !tbaa !27
  %26 = call noundef i32 @_ZNK3app12get_num_argsEv(ptr noundef nonnull align 8 dereferenceable(32) %25)
  %27 = icmp ne i32 %26, 2
  br i1 %27, label %28, label %29

28:                                               ; preds = %24
  store i1 false, ptr %4, align 1
  br label %81

29:                                               ; preds = %24
  call void @llvm.lifetime.start.p0(i64 8, ptr %8) #3
  %30 = load ptr, ptr %6, align 8, !tbaa !27
  %31 = call noundef ptr @_ZNK3app7get_argEj(ptr noundef nonnull align 8 dereferenceable(32) %30, i32 noundef 0)
  store ptr %31, ptr %8, align 8, !tbaa !8
  call void @llvm.lifetime.start.p0(i64 8, ptr %9) #3
  %32 = load ptr, ptr %6, align 8, !tbaa !27
  %33 = call noundef ptr @_ZNK3app7get_argEj(ptr noundef nonnull align 8 dereferenceable(32) %32, i32 noundef 1)
  store ptr %33, ptr %9, align 8, !tbaa !8
  call void @llvm.lifetime.start.p0(i64 8, ptr %10) #3
  %34 = load ptr, ptr %7, align 8, !tbaa !51
  %35 = getelementptr inbounds ptr, ptr %34, i64 0
  %36 = load ptr, ptr %35, align 8, !tbaa !8
  store ptr %36, ptr %10, align 8, !tbaa !8
  call void @llvm.lifetime.start.p0(i64 8, ptr %11) #3
  %37 = load ptr, ptr %7, align 8, !tbaa !51
  %38 = getelementptr inbounds ptr, ptr %37, i64 1
  %39 = load ptr, ptr %38, align 8, !tbaa !8
  store ptr %39, ptr %11, align 8, !tbaa !8
  %40 = load ptr, ptr %8, align 8, !tbaa !8
  %41 = call noundef zeroext i1 @_Z6is_appPK3ast(ptr noundef %40)
  br i1 %41, label %42, label %59

42:                                               ; preds = %29
  %43 = load ptr, ptr %10, align 8, !tbaa !8
  %44 = call noundef zeroext i1 @_Z6is_appPK3ast(ptr noundef %43)
  br i1 %44, label %45, label %59

45:                                               ; preds = %42
  %46 = load ptr, ptr %8, align 8, !tbaa !8
  %47 = call noundef ptr @_Z6to_appP3ast(ptr noundef %46)
  %48 = call noundef ptr @_ZNK3app8get_declEv(ptr noundef nonnull align 8 dereferenceable(32) %47)
  %49 = load ptr, ptr %10, align 8, !tbaa !8
  %50 = call noundef ptr @_Z6to_appP3ast(ptr noundef %49)
  %51 = call noundef ptr @_ZNK3app8get_declEv(ptr noundef nonnull align 8 dereferenceable(32) %50)
  %52 = icmp ne ptr %48, %51
  br i1 %52, label %53, label %59

53:                                               ; preds = %45
  %54 = getelementptr inbounds nuw %class.demodulator_match_subst, ptr %19, i32 0, i32 3
  store i8 0, ptr %54, align 8, !tbaa !330
  %55 = getelementptr inbounds nuw %class.demodulator_match_subst, ptr %19, i32 0, i32 2
  call void @llvm.lifetime.start.p0(i64 16, ptr %12) #3
  call void @_ZNSt4pairIP4exprS1_EC2IRS1_S4_Qcl16_S_constructibleITL0__TL0_0_EEEEOT_OT0_(ptr noundef nonnull align 8 dereferenceable(16) %12, ptr noundef nonnull align 8 dereferenceable(8) %8, ptr noundef nonnull align 8 dereferenceable(8) %11) #3
  %56 = call noundef nonnull align 8 dereferenceable(8) ptr @_ZN6vectorISt4pairIP4exprS2_ELb0EjE9push_backEOS3_(ptr noundef nonnull align 8 dereferenceable(8) %55, ptr noundef nonnull align 8 dereferenceable(16) %12)
  call void @llvm.lifetime.end.p0(i64 16, ptr %12) #3
  %57 = getelementptr inbounds nuw %class.demodulator_match_subst, ptr %19, i32 0, i32 2
  call void @llvm.lifetime.start.p0(i64 16, ptr %13) #3
  call void @_ZNSt4pairIP4exprS1_EC2IRS1_S4_Qcl16_S_constructibleITL0__TL0_0_EEEEOT_OT0_(ptr noundef nonnull align 8 dereferenceable(16) %13, ptr noundef nonnull align 8 dereferenceable(8) %9, ptr noundef nonnull align 8 dereferenceable(8) %10) #3
  %58 = call noundef nonnull align 8 dereferenceable(8) ptr @_ZN6vectorISt4pairIP4exprS2_ELb0EjE9push_backEOS3_(ptr noundef nonnull align 8 dereferenceable(8) %57, ptr noundef nonnull align 8 dereferenceable(16) %13)
  call void @llvm.lifetime.end.p0(i64 16, ptr %13) #3
  store i1 true, ptr %4, align 1
  store i32 1, ptr %14, align 4
  br label %80

59:                                               ; preds = %45, %42, %29
  %60 = load ptr, ptr %9, align 8, !tbaa !8
  %61 = call noundef zeroext i1 @_Z6is_appPK3ast(ptr noundef %60)
  br i1 %61, label %62, label %79

62:                                               ; preds = %59
  %63 = load ptr, ptr %11, align 8, !tbaa !8
  %64 = call noundef zeroext i1 @_Z6is_appPK3ast(ptr noundef %63)
  br i1 %64, label %65, label %79

65:                                               ; preds = %62
  %66 = load ptr, ptr %9, align 8, !tbaa !8
  %67 = call noundef ptr @_Z6to_appP3ast(ptr noundef %66)
  %68 = call noundef ptr @_ZNK3app8get_declEv(ptr noundef nonnull align 8 dereferenceable(32) %67)
  %69 = load ptr, ptr %11, align 8, !tbaa !8
  %70 = call noundef ptr @_Z6to_appP3ast(ptr noundef %69)
  %71 = call noundef ptr @_ZNK3app8get_declEv(ptr noundef nonnull align 8 dereferenceable(32) %70)
  %72 = icmp ne ptr %68, %71
  br i1 %72, label %73, label %79

73:                                               ; preds = %65
  %74 = getelementptr inbounds nuw %class.demodulator_match_subst, ptr %19, i32 0, i32 3
  store i8 0, ptr %74, align 8, !tbaa !330
  %75 = getelementptr inbounds nuw %class.demodulator_match_subst, ptr %19, i32 0, i32 2
  call void @llvm.lifetime.start.p0(i64 16, ptr %15) #3
  call void @_ZNSt4pairIP4exprS1_EC2IRS1_S4_Qcl16_S_constructibleITL0__TL0_0_EEEEOT_OT0_(ptr noundef nonnull align 8 dereferenceable(16) %15, ptr noundef nonnull align 8 dereferenceable(8) %8, ptr noundef nonnull align 8 dereferenceable(8) %11) #3
  %76 = call noundef nonnull align 8 dereferenceable(8) ptr @_ZN6vectorISt4pairIP4exprS2_ELb0EjE9push_backEOS3_(ptr noundef nonnull align 8 dereferenceable(8) %75, ptr noundef nonnull align 8 dereferenceable(16) %15)
  call void @llvm.lifetime.end.p0(i64 16, ptr %15) #3
  %77 = getelementptr inbounds nuw %class.demodulator_match_subst, ptr %19, i32 0, i32 2
  call void @llvm.lifetime.start.p0(i64 16, ptr %16) #3
  call void @_ZNSt4pairIP4exprS1_EC2IRS1_S4_Qcl16_S_constructibleITL0__TL0_0_EEEEOT_OT0_(ptr noundef nonnull align 8 dereferenceable(16) %16, ptr noundef nonnull align 8 dereferenceable(8) %9, ptr noundef nonnull align 8 dereferenceable(8) %10) #3
  %78 = call noundef nonnull align 8 dereferenceable(8) ptr @_ZN6vectorISt4pairIP4exprS2_ELb0EjE9push_backEOS3_(ptr noundef nonnull align 8 dereferenceable(8) %77, ptr noundef nonnull align 8 dereferenceable(16) %16)
  call void @llvm.lifetime.end.p0(i64 16, ptr %16) #3
  store i1 true, ptr %4, align 1
  store i32 1, ptr %14, align 4
  br label %80

79:                                               ; preds = %65, %62, %59
  store i1 false, ptr %4, align 1
  store i32 1, ptr %14, align 4
  br label %80

80:                                               ; preds = %79, %73, %53
  call void @llvm.lifetime.end.p0(i64 8, ptr %11) #3
  call void @llvm.lifetime.end.p0(i64 8, ptr %10) #3
  call void @llvm.lifetime.end.p0(i64 8, ptr %9) #3
  call void @llvm.lifetime.end.p0(i64 8, ptr %8) #3
  br label %81

81:                                               ; preds = %80, %28, %23
  %82 = load i1, ptr %4, align 1
  ret i1 %82
}