; Function Attrs: inlinehint mustprogress uwtable
define internal fastcc noundef zeroext i1 @"_ZZN23demodulator_match_subst10match_argsEP3appPKP4exprENK3$_0clES1_S5_"(ptr %.0.val, ptr noundef readonly captures(none) %0, ptr noundef readonly captures(none) %1) unnamed_addr #12 align 2 {
  %3 = getelementptr inbounds nuw i8, ptr %0, i64 16
  %4 = load ptr, ptr %3, align 8, !tbaa !24
  %5 = getelementptr inbounds nuw i8, ptr %4, i64 24
  %6 = load ptr, ptr %5, align 8, !tbaa !30
  %.not.i = icmp eq ptr %6, null
  br i1 %.not.i, label %_ZNK9func_decl14is_commutativeEv.exit.thread, label %_ZNK9func_decl14is_commutativeEv.exit

_ZNK9func_decl14is_commutativeEv.exit:            ; preds = %2
  %7 = getelementptr inbounds nuw i8, ptr %6, i64 17
  %8 = load i16, ptr %7, align 1
  %9 = and i16 %8, 8
  %.not22 = icmp eq i16 %9, 0
  br i1 %.not22, label %_ZNK9func_decl14is_commutativeEv.exit.thread, label %10

10:                                               ; preds = %_ZNK9func_decl14is_commutativeEv.exit
  %11 = getelementptr inbounds nuw i8, ptr %0, i64 24
  %12 = load i32, ptr %11, align 8, !tbaa !40
  %.not = icmp eq i32 %12, 2
  br i1 %.not, label %13, label %_ZNK9func_decl14is_commutativeEv.exit.thread

13:                                               ; preds = %10
  %14 = getelementptr inbounds nuw i8, ptr %0, i64 32
  %15 = load ptr, ptr %14, align 8, !tbaa !49
  %16 = getelementptr inbounds nuw i8, ptr %0, i64 40
  %17 = load ptr, ptr %16, align 8, !tbaa !49
  %18 = load ptr, ptr %1, align 8, !tbaa !49
  %19 = getelementptr inbounds nuw i8, ptr %1, i64 8
  %20 = load ptr, ptr %19, align 8, !tbaa !49
  %21 = getelementptr inbounds nuw i8, ptr %15, i64 4
  %22 = load i32, ptr %21, align 4
  %23 = and i32 %22, 65535
  %24 = icmp eq i32 %23, 0
  br i1 %24, label %25, label %60

25:                                               ; preds = %13
  %26 = getelementptr inbounds nuw i8, ptr %18, i64 4
  %27 = load i32, ptr %26, align 4
  %28 = and i32 %27, 65535
  %29 = icmp eq i32 %28, 0
  br i1 %29, label %30, label %60

30:                                               ; preds = %25
  %31 = getelementptr inbounds nuw i8, ptr %15, i64 16
  %32 = load ptr, ptr %31, align 8, !tbaa !24
  %33 = getelementptr inbounds nuw i8, ptr %18, i64 16
  %34 = load ptr, ptr %33, align 8, !tbaa !24
  %.not8 = icmp eq ptr %32, %34
  br i1 %.not8, label %60, label %35

35:                                               ; preds = %30
  %36 = getelementptr inbounds nuw i8, ptr %.0.val, i64 160
  store i8 0, ptr %36, align 8, !tbaa !334
  %37 = getelementptr inbounds nuw i8, ptr %.0.val, i64 152
  %38 = load ptr, ptr %37, align 8, !tbaa !200
  %39 = icmp eq ptr %38, null
  br i1 %39, label %46, label %40

40:                                               ; preds = %35
  %41 = getelementptr inbounds i8, ptr %38, i64 -4
  %42 = load i32, ptr %41, align 4, !tbaa !17
  %43 = getelementptr inbounds i8, ptr %38, i64 -8
  %44 = load i32, ptr %43, align 4, !tbaa !17
  %45 = icmp eq i32 %42, %44
  br i1 %45, label %46, label %47

46:                                               ; preds = %40, %35
  tail call void @_ZN6vectorISt4pairIP4exprS2_ELb0EjE13expand_vectorEv(ptr noundef nonnull align 8 dereferenceable(8) %37)
  %.pre.i = load ptr, ptr %37, align 8, !tbaa !200
  %.phi.trans.insert.i = getelementptr inbounds i8, ptr %.pre.i, i64 -4
  %.pre2.i = load i32, ptr %.phi.trans.insert.i, align 4, !tbaa !17
  br label %47

47:                                               ; preds = %46, %40
  %48 = phi i32 [ %.pre2.i, %46 ], [ %42, %40 ]
  %49 = phi ptr [ %.pre.i, %46 ], [ %38, %40 ]
  %50 = zext i32 %48 to i64
  %51 = getelementptr inbounds nuw %"struct.std::pair.75", ptr %49, i64 %50
  store ptr %15, ptr %51, align 8
  %.sroa.46.0..sroa_idx = getelementptr inbounds nuw i8, ptr %51, i64 8
  store ptr %20, ptr %.sroa.46.0..sroa_idx, align 8
  %52 = load ptr, ptr %37, align 8, !tbaa !200
  %53 = getelementptr inbounds i8, ptr %52, i64 -4
  %54 = load i32, ptr %53, align 4, !tbaa !17
  %55 = add i32 %54, 1
  store i32 %55, ptr %53, align 4, !tbaa !17
  %56 = getelementptr inbounds i8, ptr %52, i64 -8
  %57 = load i32, ptr %56, align 4, !tbaa !17
  %58 = icmp eq i32 %55, %57
  br i1 %58, label %59, label %_ZNK9func_decl14is_commutativeEv.exit.thread.sink.split

59:                                               ; preds = %47
  tail call void @_ZN6vectorISt4pairIP4exprS2_ELb0EjE13expand_vectorEv(ptr noundef nonnull align 8 dereferenceable(8) %37)
  br label %_ZNK9func_decl14is_commutativeEv.exit.thread.sink.split.sink.split

60:                                               ; preds = %30, %25, %13
  %61 = getelementptr inbounds nuw i8, ptr %17, i64 4
  %62 = load i32, ptr %61, align 4
  %63 = and i32 %62, 65535
  %64 = icmp eq i32 %63, 0
  br i1 %64, label %65, label %_ZNK9func_decl14is_commutativeEv.exit.thread

65:                                               ; preds = %60
  %66 = getelementptr inbounds nuw i8, ptr %20, i64 4
  %67 = load i32, ptr %66, align 4
  %68 = and i32 %67, 65535
  %69 = icmp eq i32 %68, 0
  br i1 %69, label %70, label %_ZNK9func_decl14is_commutativeEv.exit.thread

70:                                               ; preds = %65
  %71 = getelementptr inbounds nuw i8, ptr %17, i64 16
  %72 = load ptr, ptr %71, align 8, !tbaa !24
  %73 = getelementptr inbounds nuw i8, ptr %20, i64 16
  %74 = load ptr, ptr %73, align 8, !tbaa !24
  %.not9 = icmp eq ptr %72, %74
  br i1 %.not9, label %_ZNK9func_decl14is_commutativeEv.exit.thread, label %75

75:                                               ; preds = %70
  %76 = getelementptr inbounds nuw i8, ptr %.0.val, i64 160
  store i8 0, ptr %76, align 8, !tbaa !334
  %77 = getelementptr inbounds nuw i8, ptr %.0.val, i64 152
  %78 = load ptr, ptr %77, align 8, !tbaa !200
  %79 = icmp eq ptr %78, null
  br i1 %79, label %86, label %80

80:                                               ; preds = %75
  %81 = getelementptr inbounds i8, ptr %78, i64 -4
  %82 = load i32, ptr %81, align 4, !tbaa !17
  %83 = getelementptr inbounds i8, ptr %78, i64 -8
  %84 = load i32, ptr %83, align 4, !tbaa !17
  %85 = icmp eq i32 %82, %84
  br i1 %85, label %86, label %87

86:                                               ; preds = %80, %75
  tail call void @_ZN6vectorISt4pairIP4exprS2_ELb0EjE13expand_vectorEv(ptr noundef nonnull align 8 dereferenceable(8) %77)
  %.pre.i14 = load ptr, ptr %77, align 8, !tbaa !200
  %.phi.trans.insert.i15 = getelementptr inbounds i8, ptr %.pre.i14, i64 -4
  %.pre2.i16 = load i32, ptr %.phi.trans.insert.i15, align 4, !tbaa !17
  br label %87

87:                                               ; preds = %86, %80
  %88 = phi i32 [ %.pre2.i16, %86 ], [ %82, %80 ]
  %89 = phi ptr [ %.pre.i14, %86 ], [ %78, %80 ]
  %90 = zext i32 %88 to i64
  %91 = getelementptr inbounds nuw %"struct.std::pair.75", ptr %89, i64 %90
  store ptr %15, ptr %91, align 8
  %.sroa.42.0..sroa_idx = getelementptr inbounds nuw i8, ptr %91, i64 8
  store ptr %20, ptr %.sroa.42.0..sroa_idx, align 8
  %92 = load ptr, ptr %77, align 8, !tbaa !200
  %93 = getelementptr inbounds i8, ptr %92, i64 -4
  %94 = load i32, ptr %93, align 4, !tbaa !17
  %95 = add i32 %94, 1
  store i32 %95, ptr %93, align 4, !tbaa !17
  %96 = getelementptr inbounds i8, ptr %92, i64 -8
  %97 = load i32, ptr %96, align 4, !tbaa !17
  %98 = icmp eq i32 %95, %97
  br i1 %98, label %99, label %_ZNK9func_decl14is_commutativeEv.exit.thread.sink.split

99:                                               ; preds = %87
  tail call void @_ZN6vectorISt4pairIP4exprS2_ELb0EjE13expand_vectorEv(ptr noundef nonnull align 8 dereferenceable(8) %77)
  br label %_ZNK9func_decl14is_commutativeEv.exit.thread.sink.split.sink.split

_ZNK9func_decl14is_commutativeEv.exit.thread.sink.split.sink.split: ; preds = %59, %99
  %.sink25.in.ph = phi ptr [ %77, %99 ], [ %37, %59 ]
  %.pre.i18.sink = load ptr, ptr %.sink25.in.ph, align 8, !tbaa !200
  %.phi.trans.insert.i19 = getelementptr inbounds i8, ptr %.pre.i18.sink, i64 -4
  %.pre2.i20 = load i32, ptr %.phi.trans.insert.i19, align 4, !tbaa !17
  br label %_ZNK9func_decl14is_commutativeEv.exit.thread.sink.split

_ZNK9func_decl14is_commutativeEv.exit.thread.sink.split: ; preds = %_ZNK9func_decl14is_commutativeEv.exit.thread.sink.split.sink.split, %87, %47
  %.sink = phi i32 [ %55, %47 ], [ %95, %87 ], [ %.pre2.i20, %_ZNK9func_decl14is_commutativeEv.exit.thread.sink.split.sink.split ]
  %.sink27 = phi ptr [ %52, %47 ], [ %92, %87 ], [ %.pre.i18.sink, %_ZNK9func_decl14is_commutativeEv.exit.thread.sink.split.sink.split ]
  %.sink25.in = phi ptr [ %37, %47 ], [ %77, %87 ], [ %.sink25.in.ph, %_ZNK9func_decl14is_commutativeEv.exit.thread.sink.split.sink.split ]
  %100 = zext i32 %.sink to i64
  %101 = getelementptr inbounds nuw %"struct.std::pair.75", ptr %.sink27, i64 %100
  store ptr %17, ptr %101, align 8
  %.sroa.4.0..sroa_idx = getelementptr inbounds nuw i8, ptr %101, i64 8
  store ptr %18, ptr %.sroa.4.0..sroa_idx, align 8
  %.sink25 = load ptr, ptr %.sink25.in, align 8, !tbaa !200
  %102 = getelementptr inbounds i8, ptr %.sink25, i64 -4
  %103 = load i32, ptr %102, align 4, !tbaa !17
  %104 = add i32 %103, 1
  store i32 %104, ptr %102, align 4, !tbaa !17
  br label %_ZNK9func_decl14is_commutativeEv.exit.thread

_ZNK9func_decl14is_commutativeEv.exit.thread:     ; preds = %_ZNK9func_decl14is_commutativeEv.exit.thread.sink.split, %2, %70, %65, %60, %10, %_ZNK9func_decl14is_commutativeEv.exit
  %.0 = phi i1 [ false, %_ZNK9func_decl14is_commutativeEv.exit ], [ false, %10 ], [ false, %70 ], [ false, %65 ], [ false, %60 ], [ false, %2 ], [ true, %_ZNK9func_decl14is_commutativeEv.exit.thread.sink.split ]
  ret i1 %.0
}